; Function Attrs: nounwind uwtable
define dso_local ptr @data_list_dequeue(ptr noundef %0) local_unnamed_addr #0 {
  %.not = icmp eq ptr %0, null
  br i1 %.not, label %23, label %2

2:                                                ; preds = %1
  %3 = getelementptr inbounds nuw i8, ptr %0, i64 4
  %4 = load i32, ptr %3, align 4
  %.not18 = icmp eq i32 %4, 65282
  br i1 %.not18, label %5, label %23

5:                                                ; preds = %2
  %6 = getelementptr inbounds nuw i8, ptr %0, i64 8
  %7 = load ptr, ptr %6, align 8
  %8 = getelementptr inbounds nuw i8, ptr %7, i64 16
  %9 = load ptr, ptr %8, align 8
  %.not19 = icmp eq ptr %9, null
  br i1 %.not19, label %23, label %10

10:                                               ; preds = %5
  %11 = getelementptr inbounds nuw i8, ptr %9, i64 16
  %12 = load ptr, ptr %11, align 8
  store ptr null, ptr %11, align 8
  %13 = load ptr, ptr %6, align 8
  tail call fastcc void @_release_data_list_node(ptr noundef %13, ptr noundef %9)
  %14 = load i64, ptr getelementptr inbounds nuw (i8, ptr @slurm_conf, i64 320), align 8
  %15 = and i64 %14, 256
  %.not20 = icmp eq i64 %15, 0
  br i1 %.not20, label %23, label %16

16:                                               ; preds = %10
  %17 = tail call i32 @get_log_level() #16
  %18 = icmp sgt i32 %17, 3
  br i1 %18, label %19, label %23

19:                                               ; preds = %16
  %20 = load ptr, ptr %6, align 8
  %21 = getelementptr inbounds nuw i8, ptr %20, i64 8
  %22 = load i64, ptr %21, align 8
  tail call void (i32, ptr, ...) @log_var(i32 noundef 4, ptr noundef nonnull @.str.13, ptr noundef nonnull @__func__.data_list_dequeue, ptr noundef nonnull %0, i64 noundef %22, ptr noundef %12) #16
  br label %23

23:                                               ; preds = %10, %19, %16, %5, %1, %2
  %.0 = phi ptr [ null, %2 ], [ null, %1 ], [ null, %5 ], [ %12, %16 ], [ %12, %19 ], [ %12, %10 ]
  ret ptr %.0
}